target datalayout = "e-m:e-p270:32:32-p271:32:32-p272:64:64-i64:64-i128:128-f80:128-n8:16:32:64-S128"
target triple = "x86_64-pc-linux-gnu"

%struct.SDL_DriverPS4_Context = type { ptr, ptr, i8, i8, i8, i8, i8, i8, i8, i8, i32, i8, i8, i8, i8, i8, i8, i8, i8, [6 x %struct.IMUCalibrationData], i64, i32, i8, i8, i8, i8, i8, i8, i16, i16, i16, i16, i64, i16, i16, %struct.PS4StatePacket_t }
%struct.IMUCalibrationData = type { i16, float }
%struct.PS4StatePacket_t = type { i8, i8, i8, i8, [3 x i8], i8, i8, [2 x i8], [1 x i8], [2 x i8], [2 x i8], [2 x i8], [2 x i8], [2 x i8], [2 x i8], [5 x i8], i8, [4 x i8], i8, [3 x i8], i8, [3 x i8] }
%struct.DS4EffectsState_t = type { i8, i8, i8, i8, i8, i8, i8, [8 x i8], i8, i8, i8, i8 }

@SetLedsForPlayerIndex.colors = internal constant [7 x [3 x i8]] [[3 x i8] c"\00\00@", [3 x i8] c"@\00\00", [3 x i8] c"\00@\00", [3 x i8] c" \00 ", [3 x i8] c"\02\01\00", [3 x i8] c"\00\01\01", [3 x i8] c"\01\01\01"], align 16

; Function Attrs: nounwind uwtable
define internal void @SetLedsForPlayerIndex(ptr noundef %0, i32 noundef %1) #0 {
  %3 = alloca ptr, align 8
  %4 = alloca i32, align 4
  store ptr %0, ptr %3, align 8
  store i32 %1, ptr %4, align 4
  %5 = load i32, ptr %4, align 4
  %6 = icmp sge i32 %5, 0
  br i1 %6, label %7, label %12

7:                                                ; preds = %2
  %8 = load i32, ptr %4, align 4
  %9 = sext i32 %8 to i64
  %10 = urem i64 %9, 7
  %11 = trunc i64 %10 to i32
  store i32 %11, ptr %4, align 4
  br label %13

12:                                               ; preds = %2
  store i32 0, ptr %4, align 4
  br label %13

13:                                               ; preds = %12, %7
  %14 = load i32, ptr %4, align 4
  %15 = sext i32 %14 to i64
  %16 = getelementptr inbounds [7 x [3 x i8]], ptr @SetLedsForPlayerIndex.colors, i64 0, i64 %15
  %17 = getelementptr inbounds [3 x i8], ptr %16, i64 0, i64 0
  %18 = load i8, ptr %17, align 1
  %19 = load ptr, ptr %3, align 8
  %20 = getelementptr inbounds nuw %struct.DS4EffectsState_t, ptr %19, i32 0, i32 2
  store i8 %18, ptr %20, align 1
  %21 = load i32, ptr %4, align 4
  %22 = sext i32 %21 to i64
  %23 = getelementptr inbounds [7 x [3 x i8]], ptr @SetLedsForPlayerIndex.colors, i64 0, i64 %22
  %24 = getelementptr inbounds [3 x i8], ptr %23, i64 0, i64 1
  %25 = load i8, ptr %24, align 1
  %26 = load ptr, ptr %3, align 8
  %27 = getelementptr inbounds nuw %struct.DS4EffectsState_t, ptr %26, i32 0, i32 3
  store i8 %25, ptr %27, align 1
  %28 = load i32, ptr %4, align 4
  %29 = sext i32 %28 to i64
  %30 = getelementptr inbounds [7 x [3 x i8]], ptr @SetLedsForPlayerIndex.colors, i64 0, i64 %29
  %31 = getelementptr inbounds [3 x i8], ptr %30, i64 0, i64 2
  %32 = load i8, ptr %31, align 1
  %33 = load ptr, ptr %3, align 8
  %34 = getelementptr inbounds nuw %struct.DS4EffectsState_t, ptr %33, i32 0, i32 4
  store i8 %32, ptr %34, align 1
  ret void
}

; Function Attrs: nounwind uwtable
define internal zeroext i1 @HIDAPI_DriverPS4_UpdateEffects(ptr noundef %0, i1 noundef zeroext %1) #0 {
  %3 = alloca ptr, align 8
  %4 = alloca i8, align 1
  %5 = alloca %struct.DS4EffectsState_t, align 1
  store ptr %0, ptr %3, align 8
  %6 = zext i1 %1 to i8
  store i8 %6, ptr %4, align 1
  call void @llvm.lifetime.start.p0(i64 19, ptr %5) #6
  call void @llvm.memset.p0.i64(ptr align 1 %5, i8 0, i64 19, i1 false)
  %7 = load ptr, ptr %3, align 8
  %8 = getelementptr inbounds nuw %struct.SDL_DriverPS4_Context, ptr %7, i32 0, i32 7
  %9 = load i8, ptr %8, align 1, !range !5, !noundef !6
  %10 = trunc i8 %9 to i1
  br i1 %10, label %11, label %20

11:                                               ; preds = %2
  %12 = load ptr, ptr %3, align 8
  %13 = getelementptr inbounds nuw %struct.SDL_DriverPS4_Context, ptr %12, i32 0, i32 22
  %14 = load i8, ptr %13, align 4
  %15 = getelementptr inbounds nuw %struct.DS4EffectsState_t, ptr %5, i32 0, i32 1
  store i8 %14, ptr %15, align 1
  %16 = load ptr, ptr %3, align 8
  %17 = getelementptr inbounds nuw %struct.SDL_DriverPS4_Context, ptr %16, i32 0, i32 23
  %18 = load i8, ptr %17, align 1
  %19 = getelementptr inbounds nuw %struct.DS4EffectsState_t, ptr %5, i32 0, i32 0
  store i8 %18, ptr %19, align 1
  br label %20

20:                                               ; preds = %11, %2
  %21 = load ptr, ptr %3, align 8
  %22 = getelementptr inbounds nuw %struct.SDL_DriverPS4_Context, ptr %21, i32 0, i32 6
  %23 = load i8, ptr %22, align 4, !range !5, !noundef !6
  %24 = trunc i8 %23 to i1
  br i1 %24, label %25, label %48

25:                                               ; preds = %20
  %26 = load ptr, ptr %3, align 8
  %27 = getelementptr inbounds nuw %struct.SDL_DriverPS4_Context, ptr %26, i32 0, i32 24
  %28 = load i8, ptr %27, align 2, !range !5, !noundef !6
  %29 = trunc i8 %28 to i1
  br i1 %29, label %30, label %43

30:                                               ; preds = %25
  %31 = load ptr, ptr %3, align 8
  %32 = getelementptr inbounds nuw %struct.SDL_DriverPS4_Context, ptr %31, i32 0, i32 25
  %33 = load i8, ptr %32, align 1
  %34 = getelementptr inbounds nuw %struct.DS4EffectsState_t, ptr %5, i32 0, i32 2
  store i8 %33, ptr %34, align 1
  %35 = load ptr, ptr %3, align 8
  %36 = getelementptr inbounds nuw %struct.SDL_DriverPS4_Context, ptr %35, i32 0, i32 26
  %37 = load i8, ptr %36, align 8
  %38 = getelementptr inbounds nuw %struct.DS4EffectsState_t, ptr %5, i32 0, i32 3
  store i8 %37, ptr %38, align 1
  %39 = load ptr, ptr %3, align 8
  %40 = getelementptr inbounds nuw %struct.SDL_DriverPS4_Context, ptr %39, i32 0, i32 27
  %41 = load i8, ptr %40, align 1
  %42 = getelementptr inbounds nuw %struct.DS4EffectsState_t, ptr %5, i32 0, i32 4
  store i8 %41, ptr %42, align 1
  br label %47

43:                                               ; preds = %25
  %44 = load ptr, ptr %3, align 8
  %45 = getelementptr inbounds nuw %struct.SDL_DriverPS4_Context, ptr %44, i32 0, i32 21
  %46 = load i32, ptr %45, align 8
  call void @SetLedsForPlayerIndex(ptr noundef %5, i32 noundef %46)
  br label %47

47:                                               ; preds = %43, %30
  br label %48

48:                                               ; preds = %47, %20
  %49 = load ptr, ptr %3, align 8
  %50 = load i8, ptr %4, align 1, !range !5, !noundef !6
  %51 = trunc i8 %50 to i1
  %52 = call zeroext i1 @HIDAPI_DriverPS4_InternalSendJoystickEffect(ptr noundef %49, ptr noundef %5, i32 noundef 19, i1 noundef zeroext %51)
  call void @llvm.lifetime.end.p0(i64 19, ptr %5) #6
  ret i1 %52
}

; Function Attrs: nounwind uwtable
define internal void @SDL_PS4ReportIntervalHintChanged(ptr noundef %0, ptr noundef %1, ptr noundef %2, ptr noundef %3) #0 {
  %5 = alloca ptr, align 8
  %6 = alloca ptr, align 8
  %7 = alloca ptr, align 8
  %8 = alloca ptr, align 8
  %9 = alloca i32, align 4
  %10 = alloca ptr, align 8
  %11 = alloca i32, align 4
  %12 = alloca i32, align 4
  store ptr %0, ptr %5, align 8
  store ptr %1, ptr %6, align 8
  store ptr %2, ptr %7, align 8
  store ptr %3, ptr %8, align 8
  call void @llvm.lifetime.start.p0(i64 4, ptr %9) #6
  store i32 4, ptr %9, align 4
  call void @llvm.lifetime.start.p0(i64 8, ptr %10) #6
  %13 = load ptr, ptr %5, align 8
  store ptr %13, ptr %10, align 8
  call void @llvm.lifetime.start.p0(i64 4, ptr %11) #6
  store i32 4, ptr %11, align 4
  %14 = load ptr, ptr %8, align 8
  %15 = icmp ne ptr %14, null
  br i1 %15, label %16, label %24

16:                                               ; preds = %4
  call void @llvm.lifetime.start.p0(i64 4, ptr %12) #6
  %17 = load ptr, ptr %8, align 8
  %18 = call i32 @SDL_atoi_REAL(ptr noundef %17)
  store i32 %18, ptr %12, align 4
  %19 = load i32, ptr %12, align 4
  switch i32 %19, label %22 [
    i32 1, label %20
    i32 2, label %20
    i32 4, label %20
  ]

20:                                               ; preds = %16, %16, %16
  %21 = load i32, ptr %12, align 4
  store i32 %21, ptr %11, align 4
  br label %23

22:                                               ; preds = %16
  br label %23

23:                                               ; preds = %22, %20
  call void @llvm.lifetime.end.p0(i64 4, ptr %12) #6
  br label %24

24:                                               ; preds = %23, %4
  %25 = load i32, ptr %11, align 4
  %26 = load ptr, ptr %10, align 8
  %27 = getelementptr inbounds nuw %struct.SDL_DriverPS4_Context, ptr %26, i32 0, i32 14
  %28 = load i8, ptr %27, align 1
  %29 = zext i8 %28 to i32
  %30 = icmp ne i32 %25, %29
  br i1 %30, label %31, label %56

31:                                               ; preds = %24
  %32 = load i32, ptr %11, align 4
  %33 = trunc i32 %32 to i8
  %34 = load ptr, ptr %10, align 8
  %35 = getelementptr inbounds nuw %struct.SDL_DriverPS4_Context, ptr %34, i32 0, i32 14
  store i8 %33, ptr %35, align 1
  %36 = load ptr, ptr %10, align 8
  %37 = call zeroext i1 @HIDAPI_DriverPS4_UpdateEffects(ptr noundef %36, i1 noundef zeroext false)
  call void @SDL_LockJoysticks_REAL()
  %38 = load ptr, ptr %10, align 8
  %39 = getelementptr inbounds nuw %struct.SDL_DriverPS4_Context, ptr %38, i32 0, i32 1
  %40 = load ptr, ptr %39, align 8
  %41 = load ptr, ptr %10, align 8
  %42 = getelementptr inbounds nuw %struct.SDL_DriverPS4_Context, ptr %41, i32 0, i32 14
  %43 = load i8, ptr %42, align 1
  %44 = zext i8 %43 to i32
  %45 = sdiv i32 1000, %44
  %46 = sitofp i32 %45 to float
  call void @SDL_PrivateJoystickSensorRate(ptr noundef %40, i32 noundef 2, float noundef %46)
  %47 = load ptr, ptr %10, align 8
  %48 = getelementptr inbounds nuw %struct.SDL_DriverPS4_Context, ptr %47, i32 0, i32 1
  %49 = load ptr, ptr %48, align 8
  %50 = load ptr, ptr %10, align 8
  %51 = getelementptr inbounds nuw %struct.SDL_DriverPS4_Context, ptr %50, i32 0, i32 14
  %52 = load i8, ptr %51, align 1
  %53 = zext i8 %52 to i32
  %54 = sdiv i32 1000, %53
  %55 = sitofp i32 %54 to float
  call void @SDL_PrivateJoystickSensorRate(ptr noundef %49, i32 noundef 1, float noundef %55)
  call void @SDL_UnlockJoysticks_REAL()
  br label %56

56:                                               ; preds = %31, %24
  call void @llvm.lifetime.end.p0(i64 4, ptr %11) #6
  call void @llvm.lifetime.end.p0(i64 8, ptr %10) #6
  call void @llvm.lifetime.end.p0(i64 4, ptr %9) #6
  ret void
}