; Function Attrs: nounwind uwtable
define internal void @SDL_PS4ReportIntervalHintChanged(ptr noundef captures(none) %0, ptr readnone captures(none) %1, ptr readnone captures(none) %2, ptr noundef %3) #0 {
  %5 = alloca %struct.DS4EffectsState_t, align 1
  %.not = icmp eq ptr %3, null
  br i1 %.not, label %10, label %6

6:                                                ; preds = %4
  %7 = tail call i32 @SDL_atoi_REAL(ptr noundef nonnull %3) #9
  %switch.tableidx = add i32 %7, -1
  %8 = icmp ult i32 %switch.tableidx, 4
  br i1 %8, label %switch.lookup, label %10

switch.lookup:                                    ; preds = %6
  %9 = zext nneg i32 %switch.tableidx to i64
  %switch.gep = getelementptr inbounds nuw [4 x i32], ptr @switch.table.SDL_PS4ReportIntervalHintChanged, i64 0, i64 %9
  %switch.load = load i32, ptr %switch.gep, align 4
  br label %10

10:                                               ; preds = %switch.lookup, %6, %4
  %.0 = phi i32 [ 4, %4 ], [ 4, %6 ], [ %switch.load, %switch.lookup ]
  %11 = getelementptr inbounds nuw i8, ptr %0, i64 31
  %12 = load i8, ptr %11, align 1
  %13 = zext i8 %12 to i32
  %.not14 = icmp eq i32 %.0, %13
  br i1 %.not14, label %57, label %14

14:                                               ; preds = %10
  %15 = trunc nuw nsw i32 %.0 to i8
  store i8 %15, ptr %11, align 1
  call void @llvm.lifetime.start.p0(i64 19, ptr nonnull %5) #9
  call void @llvm.memset.p0.i64(ptr noundef nonnull align 1 dereferenceable(19) %5, i8 0, i64 19, i1 false)
  %16 = getelementptr inbounds nuw i8, ptr %0, i64 21
  %17 = load i8, ptr %16, align 1, !range !5, !noundef !6
  %18 = trunc nuw i8 %17 to i1
  br i1 %18, label %19, label %25

19:                                               ; preds = %14
  %20 = getelementptr inbounds nuw i8, ptr %0, i64 100
  %21 = load i8, ptr %20, align 4
  %22 = getelementptr inbounds nuw i8, ptr %5, i64 1
  store i8 %21, ptr %22, align 1
  %23 = getelementptr inbounds nuw i8, ptr %0, i64 101
  %24 = load i8, ptr %23, align 1
  store i8 %24, ptr %5, align 1
  br label %25

25:                                               ; preds = %19, %14
  %26 = getelementptr inbounds nuw i8, ptr %0, i64 20
  %27 = load i8, ptr %26, align 4, !range !5, !noundef !6
  %28 = trunc nuw i8 %27 to i1
  br i1 %28, label %29, label %HIDAPI_DriverPS4_UpdateEffects.exit

29:                                               ; preds = %25
  %30 = getelementptr inbounds nuw i8, ptr %0, i64 102
  %31 = load i8, ptr %30, align 2, !range !5, !noundef !6
  %32 = trunc nuw i8 %31 to i1
  br i1 %32, label %33, label %37

33:                                               ; preds = %29
  %34 = getelementptr inbounds nuw i8, ptr %0, i64 103
  %35 = getelementptr inbounds nuw i8, ptr %0, i64 104
  %36 = getelementptr inbounds nuw i8, ptr %0, i64 105
  br label %.sink.split.i

37:                                               ; preds = %29
  %38 = getelementptr inbounds nuw i8, ptr %0, i64 96
  %39 = load i32, ptr %38, align 8
  %40 = urem i32 %39, 7
  %.inv.i.i = icmp slt i32 %39, 0
  %narrow.i.i = select i1 %.inv.i.i, i32 0, i32 %40
  %.0.i.i = zext nneg i32 %narrow.i.i to i64
  %41 = getelementptr inbounds nuw [7 x [3 x i8]], ptr @SetLedsForPlayerIndex.colors, i64 0, i64 %.0.i.i
  %42 = getelementptr inbounds nuw i8, ptr %41, i64 1
  %43 = getelementptr inbounds nuw i8, ptr %41, i64 2
  br label %.sink.split.i

.sink.split.i:                                    ; preds = %37, %33
  %.sink17.in = phi ptr [ %34, %33 ], [ %41, %37 ]
  %.sink.in = phi ptr [ %35, %33 ], [ %42, %37 ]
  %.sink.in.i = phi ptr [ %36, %33 ], [ %43, %37 ]
  %.sink = load i8, ptr %.sink.in, align 1
  %.sink17 = load i8, ptr %.sink17.in, align 1
  %44 = getelementptr inbounds nuw i8, ptr %5, i64 2
  store i8 %.sink17, ptr %44, align 1
  %45 = getelementptr inbounds nuw i8, ptr %5, i64 3
  store i8 %.sink, ptr %45, align 1
  %.sink.i = load i8, ptr %.sink.in.i, align 1
  %46 = getelementptr inbounds nuw i8, ptr %5, i64 4
  store i8 %.sink.i, ptr %46, align 1
  br label %HIDAPI_DriverPS4_UpdateEffects.exit

HIDAPI_DriverPS4_UpdateEffects.exit:              ; preds = %25, %.sink.split.i
  %47 = call fastcc zeroext i1 @HIDAPI_DriverPS4_InternalSendJoystickEffect(ptr noundef nonnull %0, ptr noundef nonnull %5, i32 noundef 19, i1 noundef zeroext false)
  call void @llvm.lifetime.end.p0(i64 19, ptr nonnull %5) #9
  tail call void @SDL_LockJoysticks_REAL() #9
  %48 = getelementptr inbounds nuw i8, ptr %0, i64 8
  %49 = load ptr, ptr %48, align 8
  %50 = load i8, ptr %11, align 1
  %.rhs.trunc = zext i8 %50 to i16
  %51 = udiv i16 1000, %.rhs.trunc
  %52 = uitofp nneg i16 %51 to float
  tail call void @SDL_PrivateJoystickSensorRate(ptr noundef %49, i32 noundef 2, float noundef %52) #9
  %53 = load ptr, ptr %48, align 8
  %54 = load i8, ptr %11, align 1
  %.rhs.trunc15 = zext i8 %54 to i16
  %55 = udiv i16 1000, %.rhs.trunc15
  %56 = uitofp nneg i16 %55 to float
  tail call void @SDL_PrivateJoystickSensorRate(ptr noundef %53, i32 noundef 1, float noundef %56) #9
  tail call void @SDL_UnlockJoysticks_REAL() #9
  br label %57

57:                                               ; preds = %HIDAPI_DriverPS4_UpdateEffects.exit, %10
  ret void
}